target datalayout = "e-m:e-p270:32:32-p271:32:32-p272:64:64-i64:64-i128:128-f80:128-n8:16:32:64-S128"
target triple = "x86_64-pc-linux-gnu"

%struct.egg_file = type { ptr, %struct.egg_filename, ptr, ptr, ptr, i64, ptr, i64, ptr }
%struct.egg_filename = type { ptr, i32 }

; Function Attrs: nounwind uwtable
define internal void @egg_free_egg_block(ptr noundef %0) #0 {
  %2 = alloca ptr, align 8
  store ptr %0, ptr %2, align 8
  %3 = load ptr, ptr %2, align 8
  call void @free(ptr noundef %3) #7
  ret void
}

; Function Attrs: nounwind uwtable
define internal void @egg_free_egg_file(ptr noundef %0) #0 {
  %2 = alloca ptr, align 8
  %3 = alloca i32, align 4
  store ptr %0, ptr %2, align 8
  store i32 0, ptr %3, align 4
  %4 = load ptr, ptr %2, align 8
  %5 = getelementptr inbounds %struct.egg_file, ptr %4, i32 0, i32 1
  %6 = getelementptr inbounds %struct.egg_filename, ptr %5, i32 0, i32 0
  %7 = load ptr, ptr %6, align 8
  %8 = icmp ne ptr null, %7
  br i1 %8, label %9, label %17

9:                                                ; preds = %1
  %10 = load ptr, ptr %2, align 8
  %11 = getelementptr inbounds %struct.egg_file, ptr %10, i32 0, i32 1
  %12 = getelementptr inbounds %struct.egg_filename, ptr %11, i32 0, i32 0
  %13 = load ptr, ptr %12, align 8
  call void @free(ptr noundef %13) #7
  %14 = load ptr, ptr %2, align 8
  %15 = getelementptr inbounds %struct.egg_file, ptr %14, i32 0, i32 1
  %16 = getelementptr inbounds %struct.egg_filename, ptr %15, i32 0, i32 0
  store ptr null, ptr %16, align 8
  br label %17

17:                                               ; preds = %9, %1
  %18 = load ptr, ptr %2, align 8
  %19 = getelementptr inbounds %struct.egg_file, ptr %18, i32 0, i32 4
  %20 = load ptr, ptr %19, align 8
  %21 = icmp ne ptr null, %20
  br i1 %21, label %22, label %28

22:                                               ; preds = %17
  %23 = load ptr, ptr %2, align 8
  %24 = getelementptr inbounds %struct.egg_file, ptr %23, i32 0, i32 4
  %25 = load ptr, ptr %24, align 8
  call void @free(ptr noundef %25) #7
  %26 = load ptr, ptr %2, align 8
  %27 = getelementptr inbounds %struct.egg_file, ptr %26, i32 0, i32 4
  store ptr null, ptr %27, align 8
  br label %28

28:                                               ; preds = %22, %17
  %29 = load ptr, ptr %2, align 8
  %30 = getelementptr inbounds %struct.egg_file, ptr %29, i32 0, i32 6
  %31 = load ptr, ptr %30, align 8
  %32 = icmp ne ptr null, %31
  br i1 %32, label %33, label %64

33:                                               ; preds = %28
  store i32 0, ptr %3, align 4
  br label %34

34:                                               ; preds = %55, %33
  %35 = load i32, ptr %3, align 4
  %36 = zext i32 %35 to i64
  %37 = load ptr, ptr %2, align 8
  %38 = getelementptr inbounds %struct.egg_file, ptr %37, i32 0, i32 5
  %39 = load i64, ptr %38, align 8
  %40 = icmp ult i64 %36, %39
  br i1 %40, label %41, label %58

41:                                               ; preds = %34
  %42 = load ptr, ptr %2, align 8
  %43 = getelementptr inbounds %struct.egg_file, ptr %42, i32 0, i32 6
  %44 = load ptr, ptr %43, align 8
  %45 = load i32, ptr %3, align 4
  %46 = zext i32 %45 to i64
  %47 = getelementptr inbounds ptr, ptr %44, i64 %46
  %48 = load ptr, ptr %47, align 8
  call void @egg_free_egg_block(ptr noundef %48)
  %49 = load ptr, ptr %2, align 8
  %50 = getelementptr inbounds %struct.egg_file, ptr %49, i32 0, i32 6
  %51 = load ptr, ptr %50, align 8
  %52 = load i32, ptr %3, align 4
  %53 = zext i32 %52 to i64
  %54 = getelementptr inbounds ptr, ptr %51, i64 %53
  store ptr null, ptr %54, align 8
  br label %55

55:                                               ; preds = %41
  %56 = load i32, ptr %3, align 4
  %57 = add i32 %56, 1
  store i32 %57, ptr %3, align 4
  br label %34

58:                                               ; preds = %34
  %59 = load ptr, ptr %2, align 8
  %60 = getelementptr inbounds %struct.egg_file, ptr %59, i32 0, i32 6
  %61 = load ptr, ptr %60, align 8
  call void @free(ptr noundef %61) #7
  %62 = load ptr, ptr %2, align 8
  %63 = getelementptr inbounds %struct.egg_file, ptr %62, i32 0, i32 6
  store ptr null, ptr %63, align 8
  br label %64

64:                                               ; preds = %58, %28
  %65 = load ptr, ptr %2, align 8
  %66 = getelementptr inbounds %struct.egg_file, ptr %65, i32 0, i32 8
  %67 = load ptr, ptr %66, align 8
  %68 = icmp ne ptr null, %67
  br i1 %68, label %69, label %100

69:                                               ; preds = %64
  store i32 0, ptr %3, align 4
  br label %70

70:                                               ; preds = %91, %69
  %71 = load i32, ptr %3, align 4
  %72 = zext i32 %71 to i64
  %73 = load ptr, ptr %2, align 8
  %74 = getelementptr inbounds %struct.egg_file, ptr %73, i32 0, i32 7
  %75 = load i64, ptr %74, align 8
  %76 = icmp ult i64 %72, %75
  br i1 %76, label %77, label %94

77:                                               ; preds = %70
  %78 = load ptr, ptr %2, align 8
  %79 = getelementptr inbounds %struct.egg_file, ptr %78, i32 0, i32 8
  %80 = load ptr, ptr %79, align 8
  %81 = load i32, ptr %3, align 4
  %82 = zext i32 %81 to i64
  %83 = getelementptr inbounds ptr, ptr %80, i64 %82
  %84 = load ptr, ptr %83, align 8
  call void @free(ptr noundef %84) #7
  %85 = load ptr, ptr %2, align 8
  %86 = getelementptr inbounds %struct.egg_file, ptr %85, i32 0, i32 8
  %87 = load ptr, ptr %86, align 8
  %88 = load i32, ptr %3, align 4
  %89 = zext i32 %88 to i64
  %90 = getelementptr inbounds ptr, ptr %87, i64 %89
  store ptr null, ptr %90, align 8
  br label %91

91:                                               ; preds = %77
  %92 = load i32, ptr %3, align 4
  %93 = add i32 %92, 1
  store i32 %93, ptr %3, align 4
  br label %70

94:                                               ; preds = %70
  %95 = load ptr, ptr %2, align 8
  %96 = getelementptr inbounds %struct.egg_file, ptr %95, i32 0, i32 8
  %97 = load ptr, ptr %96, align 8
  call void @free(ptr noundef %97) #7
  %98 = load ptr, ptr %2, align 8
  %99 = getelementptr inbounds %struct.egg_file, ptr %98, i32 0, i32 8
  store ptr null, ptr %99, align 8
  br label %100

100:                                              ; preds = %94, %64
  %101 = load ptr, ptr %2, align 8
  call void @free(ptr noundef %101) #7
  ret void
}