; Function Attrs: nounwind uwtable
define internal fastcc void @egg_free_egg_file(ptr nocapture noundef %0) unnamed_addr #1 {
  %2 = getelementptr inbounds i8, ptr %0, i64 8
  %3 = load ptr, ptr %2, align 8
  %.not = icmp eq ptr %3, null
  br i1 %.not, label %5, label %4

4:                                                ; preds = %1
  tail call void @free(ptr noundef nonnull %3) #11
  store ptr null, ptr %2, align 8
  br label %5

5:                                                ; preds = %4, %1
  %6 = getelementptr inbounds i8, ptr %0, i64 40
  %7 = load ptr, ptr %6, align 8
  %.not30 = icmp eq ptr %7, null
  br i1 %.not30, label %9, label %8

8:                                                ; preds = %5
  tail call void @free(ptr noundef nonnull %7) #11
  store ptr null, ptr %6, align 8
  br label %9

9:                                                ; preds = %8, %5
  %10 = getelementptr inbounds i8, ptr %0, i64 56
  %11 = load ptr, ptr %10, align 8
  %.not31 = icmp eq ptr %11, null
  br i1 %.not31, label %25, label %.preheader33

.preheader33:                                     ; preds = %9
  %12 = getelementptr inbounds i8, ptr %0, i64 48
  %13 = load i64, ptr %12, align 8
  %.not38 = icmp eq i64 %13, 0
  br i1 %.not38, label %._crit_edge, label %.lr.ph

.lr.ph:                                           ; preds = %.preheader33, %.lr.ph
  %14 = phi i64 [ %21, %.lr.ph ], [ 0, %.preheader33 ]
  %.034 = phi i32 [ %20, %.lr.ph ], [ 0, %.preheader33 ]
  %15 = load ptr, ptr %10, align 8
  %16 = getelementptr inbounds ptr, ptr %15, i64 %14
  %17 = load ptr, ptr %16, align 8
  tail call void @free(ptr noundef %17) #11
  %18 = load ptr, ptr %10, align 8
  %19 = getelementptr inbounds ptr, ptr %18, i64 %14
  store ptr null, ptr %19, align 8
  %20 = add i32 %.034, 1
  %21 = zext i32 %20 to i64
  %22 = load i64, ptr %12, align 8
  %23 = icmp ugt i64 %22, %21
  br i1 %23, label %.lr.ph, label %._crit_edge.loopexit

._crit_edge.loopexit:                             ; preds = %.lr.ph
  %.pre = load ptr, ptr %10, align 8
  br label %._crit_edge

._crit_edge:                                      ; preds = %._crit_edge.loopexit, %.preheader33
  %24 = phi ptr [ %.pre, %._crit_edge.loopexit ], [ %11, %.preheader33 ]
  tail call void @free(ptr noundef %24) #11
  store ptr null, ptr %10, align 8
  br label %25

25:                                               ; preds = %._crit_edge, %9
  %26 = getelementptr inbounds i8, ptr %0, i64 72
  %27 = load ptr, ptr %26, align 8
  %.not32 = icmp eq ptr %27, null
  br i1 %.not32, label %41, label %.preheader

.preheader:                                       ; preds = %25
  %28 = getelementptr inbounds i8, ptr %0, i64 64
  %29 = load i64, ptr %28, align 8
  %.not39 = icmp eq i64 %29, 0
  br i1 %.not39, label %._crit_edge37, label %.lr.ph36

.lr.ph36:                                         ; preds = %.preheader, %.lr.ph36
  %30 = phi i64 [ %37, %.lr.ph36 ], [ 0, %.preheader ]
  %.135 = phi i32 [ %36, %.lr.ph36 ], [ 0, %.preheader ]
  %31 = load ptr, ptr %26, align 8
  %32 = getelementptr inbounds ptr, ptr %31, i64 %30
  %33 = load ptr, ptr %32, align 8
  tail call void @free(ptr noundef %33) #11
  %34 = load ptr, ptr %26, align 8
  %35 = getelementptr inbounds ptr, ptr %34, i64 %30
  store ptr null, ptr %35, align 8
  %36 = add i32 %.135, 1
  %37 = zext i32 %36 to i64
  %38 = load i64, ptr %28, align 8
  %39 = icmp ugt i64 %38, %37
  br i1 %39, label %.lr.ph36, label %._crit_edge37.loopexit

._crit_edge37.loopexit:                           ; preds = %.lr.ph36
  %.pre40 = load ptr, ptr %26, align 8
  br label %._crit_edge37

._crit_edge37:                                    ; preds = %._crit_edge37.loopexit, %.preheader
  %40 = phi ptr [ %.pre40, %._crit_edge37.loopexit ], [ %27, %.preheader ]
  tail call void @free(ptr noundef %40) #11
  br label %41

41:                                               ; preds = %._crit_edge37, %25
  tail call void @free(ptr noundef nonnull %0) #11
  ret void
}